Certificate:
    Data:
        Version: 3 (0x2)
        Serial Number: 1 (0x1)
    Signature Algorithm: sha256WithRSAEncryption
        Issuer: O=AEGEAN CA gov, OU=University/emailAddress=aegean@aegean.gr, L=Karlovasi, ST=Samos, C=GR, CN=AEGEAN CA gov
        Validity
            Not Before: Oct 20 10:06:36 2014 GMT
            Not After : Oct 19 10:06:36 2016 GMT
        Subject: C=GR, ST=Samos, O=AEGEAN CA gov, OU=University, CN=AEGEAN CLIENT
        Subject Public Key Info:
            Public Key Algorithm: rsaEncryption
                Public-Key: (4096 bit)
                Modulus:
                    00:d7:88:6c:38:0b:a6:00:1c:67:be:45:63:19:45:
                    db:ab:84:3a:e7:8f:ad:25:54:11:57:1f:6d:41:f2:
                    92:5b:80:cd:f4:6c:da:cb:a5:aa:74:f1:bb:84:d0:
                    af:a6:bc:03:0a:dc:9a:9c:f1:ac:96:b9:5d:af:57:
                    28:59:0f:c8:cc:08:ed:83:d7:5a:81:17:c5:a8:25:
                    3f:18:b8:79:80:e2:a3:34:07:6e:0f:31:88:a1:77:
                    48:39:25:bd:e6:95:a3:23:84:d8:a6:5f:ad:93:d1:
                    e0:ab:ad:d0:af:12:10:9f:8b:23:ad:75:14:51:e7:
                    1b:3d:36:eb:d9:d6:9a:5d:cf:24:9b:f7:4d:7f:a8:
                    18:e8:f0:81:46:0d:61:94:17:3b:4c:b2:4b:13:bf:
                    0a:a4:8a:c7:35:be:c1:bc:19:4b:93:91:35:01:ad:
                    0c:3b:76:f8:e7:7a:3c:4e:67:8f:01:5a:46:6c:96:
                    12:a8:ea:ff:b3:91:3d:fc:63:7b:4c:4f:67:28:28:
                    a1:a8:8f:90:1f:b6:93:8f:e6:09:3c:70:e7:cf:90:
                    ef:59:cd:a0:f2:09:42:29:aa:76:3f:87:4f:e1:6b:
                    a1:48:ec:bc:5f:57:ac:ba:9f:84:4a:9a:44:01:3c:
                    c8:12:8b:e3:a6:0c:91:c8:3e:27:0e:eb:7e:5e:0b:
                    09:74:cb:7f:36:75:25:2e:62:71:b0:45:d5:2f:0f:
                    61:41:12:99:7d:e6:76:d4:e1:c5:31:a6:f7:c0:15:
                    e2:f0:e0:c1:4d:3f:a8:3e:55:ae:3f:d3:79:ea:63:
                    c6:66:09:39:40:07:75:ce:4a:da:b1:7f:3a:32:f3:
                    c2:b8:54:d8:8f:3c:73:cf:04:85:24:fe:eb:01:ac:
                    d8:6f:d9:89:16:ec:96:51:5b:45:96:42:0a:cb:e3:
                    b9:a0:1e:f3:57:af:25:ca:69:1d:b7:03:3f:0f:16:
                    8e:fd:41:54:35:84:46:63:a0:31:fc:92:64:2b:ed:
                    aa:3d:64:f5:28:ed:8b:75:2c:a2:6e:07:94:ac:17:
                    2d:9b:63:2c:26:69:15:79:25:2b:f1:28:f3:4a:71:
                    dc:34:f6:7b:05:6e:98:b9:ff:5c:d4:e3:68:ba:94:
                    2b:05:84:47:5e:4c:e8:7f:0a:4e:5f:a7:e1:50:39:
                    e6:31:14:bc:f1:31:c3:47:c1:ad:ce:31:1a:df:d8:
                    aa:b3:0a:ad:cb:a3:7d:c4:8a:b4:85:32:16:95:14:
                    53:07:44:bb:c8:c9:9d:7b:4b:25:8a:e4:ee:a2:a6:
                    ef:58:21:2e:1c:ab:29:68:21:a1:17:37:1e:76:17:
                    54:6a:21:30:3c:45:d5:f7:95:c3:26:7e:99:16:0f:
                    2b:51:ad
                Exponent: 65537 (0x10001)
        X509v3 extensions:
            X509v3 Basic Constraints: 
                CA:FALSE
            X509v3 Subject Key Identifier: 
                84:F5:19:F0:B2:9D:0D:4C:B4:88:4A:8C:13:D4:F0:85:96:D8:20:AF
            X509v3 Key Usage: 
                Digital Signature, Non Repudiation, Key Encipherment, Data Encipherment, Key Agreement
            Netscape Cert Type: 
                SSL Client, SSL Server, S/MIME, Object Signing
    Signature Algorithm: sha256WithRSAEncryption
         08:f9:af:33:2f:ec:82:00:1d:8d:b2:b8:3a:5d:27:17:ca:7d:
         da:c9:03:fd:5b:2f:34:bc:0f:b9:17:25:39:66:98:16:b0:ed:
         f2:60:ea:98:b4:29:d1:e2:33:23:0e:a3:5e:b9:27:17:95:01:
         5d:03:84:9f:35:70:5a:ce:50:08:eb:98:25:67:fc:fa:0f:46:
         36:d6:c3:5a:9c:9b:de:e0:d2:a6:d3:b1:ca:40:75:84:fb:6c:
         be:ca:db:6d:d5:76:8d:c0:25:7b:80:43:35:7c:ad:8c:c3:b9:
         bc:bf:69:0d:b6:c9:be:86:7f:d4:84:f1:b0:df:52:7d:65:76:
         59:4c:f0:9b:80:6c:0f:cc:1a:ab:88:8b:3c:c0:2b:1c:69:1f:
         87:6f:a8:6c:77:37:71:22:2b:87:ef:79:57:7e:a6:fc:7f:75:
         5d:c6:43:56:a9:d3:14:0a:5e:ee:67:9e:55:f1:f4:cf:b0:b6:
         12:ea:0d:be:1d:7e:ca:a8:c4:bd:0f:90:2b:69:3c:14:0b:4c:
         c8:98:cc:ac:5d:a1:e2:67:da:25:92:b9:56:63:5f:2f:6a:8c:
         d7:07:86:3b:ac:08:71:4e:6f:58:a7:b5:7b:08:0c:58:6b:ea:
         9e:a3:2c:9f:36:3f:62:44:2a:b8:4a:99:d9:c8:4d:ad:56:4c:
         80:b6:4a:63:d5:3a:35:f3:4d:25:c4:ec:26:f3:4c:91:a9:6f:
         7a:de:2e:8b:9c:f3:6d:6b:98:0f:df:12:55:75:50:8e:30:12:
         bf:75:82:ae:69:f4:18:9c:ab:19:4d:71:87:23:bb:96:be:7f:
         cd:68:d7:23:cc:7a:90:c3:00:fc:28:b7:cf:85:1e:70:b0:c4:
         01:61:de:a5:51:01:bb:8d:bc:66:cb:96:cc:74:3c:e6:e7:03:
         59:44:23:a8:00:41:45:22:68:9e:ce:b5:c7:11:63:46:28:98:
         41:36:3e:ea:a7:8d:f6:07:f9:62:3e:a0:c7:a6:64:11:da:1a:
         0c:f9:58:92:54:9a:b6:eb:44:e2:6a:b5:f4:3e:73:d9:b6:39:
         6c:11:67:4b:1b:7f:d9:f1:97:9a:43:99:c4:67:b6:44:44:76:
         b4:75:89:24:c9:81:f1:88:b8:cf:05:ea:dd:fb:dd:06:69:4c:
         53:71:7c:08:a6:49:25:6a:2e:6a:34:f4:9a:ad:e9:5c:a7:d9:
         72:58:cc:2e:92:17:27:38:ca:76:9f:2a:b5:58:bc:01:2d:51:
         f7:8d:df:33:e8:94:68:66:e0:ef:34:95:cf:c6:aa:23:76:6e:
         9d:3f:37:d1:25:13:40:4f:ae:6c:42:f7:6c:d0:7a:88:eb:ab:
         84:e7:00:d9:9f:25:88:79
-----BEGIN CERTIFICATE-----
MIIFwTCCA6mgAwIBAgIBATANBgkqhkiG9w0BAQsFADCBlzEWMBQGA1UEChMNQUVH
RUFOIENBIGdvdjETMBEGA1UECxMKVW5pdmVyc2l0eTEfMB0GCSqGSIb3DQEJARYQ
YWVnZWFuQGFlZ2Vhbi5ncjESMBAGA1UEBxMJS2FybG92YXNpMQ4wDAYDVQQIEwVT
YW1vczELMAkGA1UEBhMCR1IxFjAUBgNVBAMTDUFFR0VBTiBDQSBnb3YwHhcNMTQx
MDIwMTAwNjM2WhcNMTYxMDE5MTAwNjM2WjBiMQswCQYDVQQGEwJHUjEOMAwGA1UE
CBMFU2Ftb3MxFjAUBgNVBAoTDUFFR0VBTiBDQSBnb3YxEzARBgNVBAsTClVuaXZl
cnNpdHkxFjAUBgNVBAMTDUFFR0VBTiBDTElFTlQwggIiMA0GCSqGSIb3DQEBAQUA
A4ICDwAwggIKAoICAQDXiGw4C6YAHGe+RWMZRdurhDrnj60lVBFXH21B8pJbgM30
bNrLpap08buE0K+mvAMK3Jqc8ayWuV2vVyhZD8jMCO2D11qBF8WoJT8YuHmA4qM0
B24PMYihd0g5Jb3mlaMjhNimX62T0eCrrdCvEhCfiyOtdRRR5xs9NuvZ1ppdzySb
901/qBjo8IFGDWGUFztMsksTvwqkisc1vsG8GUuTkTUBrQw7dvjnejxOZ48BWkZs
lhKo6v+zkT38Y3tMT2coKKGoj5AftpOP5gk8cOfPkO9ZzaDyCUIpqnY/h0/ha6FI
7LxfV6y6n4RKmkQBPMgSi+OmDJHIPicO635eCwl0y382dSUuYnGwRdUvD2FBEpl9
5nbU4cUxpvfAFeLw4MFNP6g+Va4/03nqY8ZmCTlAB3XOStqxfzoy88K4VNiPPHPP
BIUk/usBrNhv2YkW7JZRW0WWQgrL47mgHvNXryXKaR23Az8PFo79QVQ1hEZjoDH8
kmQr7ao9ZPUo7Yt1LKJuB5SsFy2bYywmaRV5JSvxKPNKcdw09nsFbpi5/1zU42i6
lCsFhEdeTOh/Ck5fp+FQOeYxFLzxMcNHwa3OMRrf2KqzCq3Lo33EirSFMhaVFFMH
RLvIyZ17SyWK5O6ipu9YIS4cqyloIaEXNx52F1RqITA8RdX3lcMmfpkWDytRrQID
AQABo0wwSjAJBgNVHRMEAjAAMB0GA1UdDgQWBBSE9Rnwsp0NTLSISowT1PCFltgg
rzALBgNVHQ8EBAMCA/gwEQYJYIZIAYb4QgEBBAQDAgTwMA0GCSqGSIb3DQEBCwUA
A4ICAQAI+a8zL+yCAB2Nsrg6XScXyn3ayQP9Wy80vA+5FyU5ZpgWsO3yYOqYtCnR
4jMjDqNeuScXlQFdA4SfNXBazlAI65glZ/z6D0Y21sNanJve4NKm07HKQHWE+2y+
yttt1XaNwCV7gEM1fK2Mw7m8v2kNtsm+hn/UhPGw31J9ZXZZTPCbgGwPzBqriIs8
wCscaR+Hb6hsdzdxIiuH73lXfqb8f3VdxkNWqdMUCl7uZ55V8fTPsLYS6g2+HX7K
qMS9D5AraTwUC0zImMysXaHiZ9olkrlWY18vaozXB4Y7rAhxTm9Yp7V7CAxYa+qe
oyyfNj9iRCq4SpnZyE2tVkyAtkpj1To1800lxOwm80yRqW963i6LnPNta5gP3xJV
dVCOMBK/dYKuafQYnKsZTXGHI7uWvn/NaNcjzHqQwwD8KLfPhR5wsMQBYd6lUQG7
jbxmy5bMdDzm5wNZRCOoAEFFImiezrXHEWNGKJhBNj7qp432B/liPqDHpmQR2hoM
+ViSVJq260TiarX0PnPZtjlsEWdLG3/Z8ZeaQ5nEZ7ZERHa0dYkkyYHxiLjPBerd
+90GaUxTcXwIpkklai5qNPSarelcp9lyWMwukhcnOMp2nyq1WLwBLVH3jd8z6JRo
ZuDvNJXPxqojdm6dPzfRJRNAT65sQvds0HqI66uE5wDZnyWIeQ==
-----END CERTIFICATE-----
