Certificate:
    Data:
        Version: 3 (0x2)
        Serial Number: 2 (0x2)
    Signature Algorithm: sha256WithRSAEncryption
        Issuer: O=AEGEAN CA gov, OU=University/emailAddress=aegean@aegean.gr, L=Karlovasi, ST=Samos, C=GR, CN=AEGEAN CA gov
        Validity
            Not Before: Oct 20 10:06:50 2014 GMT
            Not After : Oct 19 10:06:50 2016 GMT
        Subject: C=GR, ST=Samos, O=AEGEAN CA gov, OU=University, CN=AEGEAN SERVER
        Subject Public Key Info:
            Public Key Algorithm: rsaEncryption
                Public-Key: (4096 bit)
                Modulus:
                    00:b3:3e:5b:e0:6b:6f:43:f4:80:e7:64:e5:ec:13:
                    7d:8b:4a:aa:a4:35:91:b8:2e:e3:1b:62:98:5c:d0:
                    07:22:c5:b4:30:ea:46:98:9e:6a:b0:b7:2c:54:c2:
                    7a:5f:69:ff:6f:0e:81:98:03:d7:e5:53:e8:17:d0:
                    91:c4:37:6f:f9:01:50:c6:58:fe:06:47:00:e9:bf:
                    fd:71:78:f5:b4:3b:63:80:9c:9e:3a:0a:d2:c0:8f:
                    49:d5:49:35:6f:29:30:44:7a:3a:e4:14:76:a1:cd:
                    a2:04:42:d2:6a:e9:37:85:c9:30:b0:9e:f1:93:66:
                    14:67:f3:67:2a:5a:68:bc:3c:fb:4c:f5:47:6b:27:
                    67:4b:d9:f7:b1:63:1e:a3:fb:dd:d9:f3:81:20:c4:
                    34:f8:eb:6c:eb:33:5f:93:61:14:eb:7e:fd:17:61:
                    c8:c9:2f:e6:ed:41:70:1a:e7:d2:88:cc:bf:ed:d9:
                    88:17:7a:f5:e6:66:07:2e:3c:b4:8f:b4:46:db:80:
                    a5:12:f8:3b:ef:93:bc:6e:02:d0:3d:cd:d9:5d:0d:
                    dc:d8:36:50:22:b9:8d:86:b9:8f:b1:74:9c:15:ca:
                    5d:58:46:1a:d1:8a:a5:cf:98:61:d8:bb:74:62:7b:
                    88:15:38:32:5f:b1:01:12:58:ce:72:6c:5c:ce:c0:
                    7b:95:ec:4b:aa:88:5c:4f:d7:b8:66:56:4e:3d:19:
                    a4:e1:15:f1:8b:1a:66:7a:2d:d0:ee:40:bd:78:b4:
                    46:2d:cd:11:7e:a7:dc:ef:07:c9:46:44:4f:57:ce:
                    10:ba:a5:48:ea:7b:dc:a9:6b:77:2b:1c:9c:24:4c:
                    6e:0d:c2:36:0d:8c:67:31:0e:28:7c:34:c5:a5:37:
                    aa:de:21:70:62:53:5f:f4:39:80:a6:06:5b:32:6e:
                    03:74:eb:e7:e6:31:ce:45:74:42:b3:e7:d6:c7:88:
                    a8:1b:ae:11:ea:0d:b2:80:b7:4b:41:c5:85:f8:4a:
                    f0:0c:9e:7c:f8:44:c8:45:ff:aa:c7:b3:5c:5f:a3:
                    2e:79:82:58:89:12:da:6b:9d:be:97:0f:ed:db:39:
                    c2:ab:15:96:a7:08:b8:d8:2e:bb:f4:d5:ec:3c:4e:
                    c7:8e:2f:d1:ed:07:fb:86:22:bd:d5:cd:e1:4c:08:
                    32:8d:ab:8f:aa:9f:66:0d:c0:ed:a3:c5:4a:1a:49:
                    12:53:82:88:da:95:a1:e2:39:06:b9:0e:5d:7f:31:
                    92:9e:a0:29:6c:b7:25:9c:d6:28:dc:05:7b:1a:3a:
                    c2:b7:ac:d8:ab:dc:5c:c6:bb:58:18:db:2d:47:a1:
                    d9:a2:b2:34:b0:f5:c1:1b:57:95:22:5f:f1:88:7f:
                    d2:02:6f
                Exponent: 65537 (0x10001)
        X509v3 extensions:
            X509v3 Basic Constraints: 
                CA:FALSE
            X509v3 Subject Key Identifier: 
                97:B7:65:F9:C6:A5:74:6C:2A:D6:35:E3:39:BE:69:1F:49:51:41:24
            X509v3 Key Usage: 
                Digital Signature, Non Repudiation, Key Encipherment, Data Encipherment, Key Agreement
            Netscape Cert Type: 
                SSL Client, SSL Server, S/MIME, Object Signing
    Signature Algorithm: sha256WithRSAEncryption
         60:75:0e:4a:b6:6a:ef:a6:85:c1:12:2d:f5:1c:15:2b:cd:d3:
         02:4e:52:bc:83:85:11:68:73:e1:57:97:1c:c3:d4:fb:84:52:
         3e:c7:0b:0b:8b:7a:ec:28:a9:63:a2:12:d0:e6:ab:cf:fa:84:
         28:d2:0c:b2:1b:be:01:23:bb:a1:53:4a:12:73:c4:69:e6:d4:
         f2:39:4d:b9:ee:38:2d:29:db:f8:ca:9e:cc:97:d1:7f:ed:42:
         4c:f9:4d:d8:7d:70:30:0a:78:81:11:6d:20:c6:cf:1e:a4:48:
         d2:e8:5b:8c:64:2e:30:c8:b3:e1:bb:b4:5a:46:aa:f9:9c:dd:
         a7:6c:a8:34:d8:e3:b0:93:31:21:58:1e:d7:d2:1b:b1:97:b5:
         1b:88:16:a5:37:50:c8:61:19:b1:3a:1a:a3:3b:02:f0:5b:e4:
         00:8b:1f:3e:b0:4b:f4:a4:5c:1b:01:8e:b6:65:56:8d:2c:15:
         f3:c0:b1:9c:4a:5e:12:6a:af:e2:36:7a:25:73:a1:1c:8f:a8:
         f7:69:d0:fa:6e:77:b4:c5:67:3b:e8:2f:4a:a2:d7:ce:f5:cf:
         1e:e9:03:3d:4a:5a:ef:c1:ac:4f:eb:3e:3f:25:03:3c:8c:89:
         c0:6d:f1:a5:50:43:4e:e2:a0:94:c1:ec:a2:79:4d:79:06:3e:
         4b:4a:b6:ce:cf:d5:e8:4e:8d:73:59:4b:ba:27:49:05:6e:e5:
         ba:77:41:5e:3f:7b:36:c4:67:1f:f9:78:af:57:78:54:7a:7a:
         65:97:6f:ff:f6:72:00:66:61:81:e0:7a:0e:df:f6:13:c3:fe:
         91:d9:94:6e:dd:1f:98:d3:ef:c7:a6:41:98:ca:d9:c1:af:ed:
         5d:4a:64:0b:95:06:c3:5e:10:c8:56:84:21:af:10:53:96:47:
         bc:84:05:61:d2:82:49:bc:86:f6:a0:d3:06:a0:df:60:a4:64:
         c0:bb:00:37:20:15:9e:01:08:be:cc:3f:36:d3:b9:d2:5e:96:
         28:99:09:5c:28:d8:7a:fe:50:55:00:f9:e7:df:9e:b8:03:5f:
         46:bb:e5:93:1c:7c:2f:be:df:37:8c:b8:0c:e4:37:76:b7:22:
         cf:68:45:93:cf:e7:84:f9:8f:b6:12:61:6f:06:83:19:17:78:
         25:8a:5b:48:05:43:fd:ac:33:2b:cf:4b:cf:cf:87:90:9e:3f:
         b3:26:1c:9f:44:ab:62:7a:de:c5:c9:fb:3e:d3:05:34:64:00:
         b3:82:ad:d1:a7:09:f9:da:e9:74:0f:0d:74:94:3b:52:dd:b7:
         ce:2c:22:fc:53:e4:54:c2:18:4c:c5:dd:cf:04:98:b4:9b:4c:
         3b:a4:bb:b5:ba:91:18:44
-----BEGIN CERTIFICATE-----
MIIFwTCCA6mgAwIBAgIBAjANBgkqhkiG9w0BAQsFADCBlzEWMBQGA1UEChMNQUVH
RUFOIENBIGdvdjETMBEGA1UECxMKVW5pdmVyc2l0eTEfMB0GCSqGSIb3DQEJARYQ
YWVnZWFuQGFlZ2Vhbi5ncjESMBAGA1UEBxMJS2FybG92YXNpMQ4wDAYDVQQIEwVT
YW1vczELMAkGA1UEBhMCR1IxFjAUBgNVBAMTDUFFR0VBTiBDQSBnb3YwHhcNMTQx
MDIwMTAwNjUwWhcNMTYxMDE5MTAwNjUwWjBiMQswCQYDVQQGEwJHUjEOMAwGA1UE
CBMFU2Ftb3MxFjAUBgNVBAoTDUFFR0VBTiBDQSBnb3YxEzARBgNVBAsTClVuaXZl
cnNpdHkxFjAUBgNVBAMTDUFFR0VBTiBTRVJWRVIwggIiMA0GCSqGSIb3DQEBAQUA
A4ICDwAwggIKAoICAQCzPlvga29D9IDnZOXsE32LSqqkNZG4LuMbYphc0AcixbQw
6kaYnmqwtyxUwnpfaf9vDoGYA9flU+gX0JHEN2/5AVDGWP4GRwDpv/1xePW0O2OA
nJ46CtLAj0nVSTVvKTBEejrkFHahzaIEQtJq6TeFyTCwnvGTZhRn82cqWmi8PPtM
9UdrJ2dL2fexYx6j+93Z84EgxDT462zrM1+TYRTrfv0XYcjJL+btQXAa59KIzL/t
2YgXevXmZgcuPLSPtEbbgKUS+Dvvk7xuAtA9zdldDdzYNlAiuY2GuY+xdJwVyl1Y
RhrRiqXPmGHYu3Rie4gVODJfsQESWM5ybFzOwHuV7EuqiFxP17hmVk49GaThFfGL
GmZ6LdDuQL14tEYtzRF+p9zvB8lGRE9XzhC6pUjqe9ypa3crHJwkTG4NwjYNjGcx
Dih8NMWlN6reIXBiU1/0OYCmBlsybgN06+fmMc5FdEKz59bHiKgbrhHqDbKAt0tB
xYX4SvAMnnz4RMhF/6rHs1xfoy55gliJEtprnb6XD+3bOcKrFZanCLjYLrv01ew8
TseOL9HtB/uGIr3VzeFMCDKNq4+qn2YNwO2jxUoaSRJTgojalaHiOQa5Dl1/MZKe
oClstyWc1ijcBXsaOsK3rNir3FzGu1gY2y1HodmisjSw9cEbV5UiX/GIf9ICbwID
AQABo0wwSjAJBgNVHRMEAjAAMB0GA1UdDgQWBBSXt2X5xqV0bCrWNeM5vmkfSVFB
JDALBgNVHQ8EBAMCA/gwEQYJYIZIAYb4QgEBBAQDAgTwMA0GCSqGSIb3DQEBCwUA
A4ICAQBgdQ5KtmrvpoXBEi31HBUrzdMCTlK8g4URaHPhV5ccw9T7hFI+xwsLi3rs
KKljohLQ5qvP+oQo0gyyG74BI7uhU0oSc8Rp5tTyOU257jgtKdv4yp7Ml9F/7UJM
+U3YfXAwCniBEW0gxs8epEjS6FuMZC4wyLPhu7RaRqr5nN2nbKg02OOwkzEhWB7X
0huxl7UbiBalN1DIYRmxOhqjOwLwW+QAix8+sEv0pFwbAY62ZVaNLBXzwLGcSl4S
aq/iNnolc6Ecj6j3adD6bne0xWc76C9KotfO9c8e6QM9SlrvwaxP6z4/JQM8jInA
bfGlUENO4qCUweyieU15Bj5LSrbOz9XoTo1zWUu6J0kFbuW6d0FeP3s2xGcf+Xiv
V3hUenpll2//9nIAZmGB4HoO3/YTw/6R2ZRu3R+Y0+/HpkGYytnBr+1dSmQLlQbD
XhDIVoQhrxBTlke8hAVh0oJJvIb2oNMGoN9gpGTAuwA3IBWeAQi+zD8207nSXpYo
mQlcKNh6/lBVAPnn3564A19Gu+WTHHwvvt83jLgM5Dd2tyLPaEWTz+eE+Y+2EmFv
BoMZF3gliltIBUP9rDMrz0vPz4eQnj+zJhyfRKtiet7Fyfs+0wU0ZACzgq3Rpwn5
2ul0Dw10lDtS3bfOLCL8U+RUwhhMxd3PBJi0m0w7pLu1upEYRA==
-----END CERTIFICATE-----
